; Function Attrs: mustprogress nounwind uwtable
define void @_ZN4LIEF2PE17DynamicRelocationD2Ev(ptr noundef nonnull align 8 captures(none) dereferenceable(32) initializes((0, 8)) %0) unnamed_addr #1 align 2 {
  store ptr getelementptr inbounds nuw inrange(-16, 32) (i8, ptr @_ZTVN4LIEF2PE17DynamicRelocationE, i64 16), ptr %0, align 8, !tbaa !3
  %2 = getelementptr inbounds nuw i8, ptr %0, i64 24
  %3 = load ptr, ptr %2, align 8, !tbaa !21
  %.not.i = icmp eq ptr %3, null
  br i1 %.not.i, label %_ZNSt10unique_ptrIN4LIEF2PE12DynamicFixupESt14default_deleteIS2_EED2Ev.exit, label %_ZNKSt14default_deleteIN4LIEF2PE12DynamicFixupEEclEPS2_.exit.i

_ZNKSt14default_deleteIN4LIEF2PE12DynamicFixupEEclEPS2_.exit.i: ; preds = %1
  %4 = load ptr, ptr %3, align 8, !tbaa !3
  %5 = getelementptr inbounds nuw i8, ptr %4, i64 24
  %6 = load ptr, ptr %5, align 8
  tail call void %6(ptr noundef nonnull align 8 dereferenceable(12) %3) #9
  br label %_ZNSt10unique_ptrIN4LIEF2PE12DynamicFixupESt14default_deleteIS2_EED2Ev.exit

_ZNSt10unique_ptrIN4LIEF2PE12DynamicFixupESt14default_deleteIS2_EED2Ev.exit: ; preds = %1, %_ZNKSt14default_deleteIN4LIEF2PE12DynamicFixupEEclEPS2_.exit.i
  store ptr null, ptr %2, align 8, !tbaa !21
  ret void
}